; ModuleID = '56/985.c'
source_filename = "56/985.c"
target datalayout = "e-m:e-p270:32:32-p271:32:32-p272:64:64-i64:64-f80:128-n8:16:32:64-S128"
target triple = "x86_64-pc-linux-gnu"

@.str = private unnamed_addr constant [3 x i8] c"%d\00", align 1
@.str.1 = private unnamed_addr constant [5 x i8] c"%d%d\00", align 1
@.str.2 = private unnamed_addr constant [7 x i8] c"%d%d%d\00", align 1
@.str.3 = private unnamed_addr constant [9 x i8] c"%d%d%d%d\00", align 1
@.str.4 = private unnamed_addr constant [11 x i8] c"%d%d%d%d%d\00", align 1

; Function Attrs: noinline nounwind uwtable
define dso_local i32 @main() #0 {
  %1 = alloca i32, align 4
  %2 = alloca i32, align 4
  %3 = alloca i32, align 4
  %4 = alloca i32, align 4
  %5 = alloca i32, align 4
  %6 = alloca i32, align 4
  %7 = alloca i32, align 4
  store i32 0, i32* %1, align 4
  %8 = call i32 (i8*, ...) @__isoc99_scanf(i8* getelementptr inbounds ([3 x i8], [3 x i8]* @.str, i64 0, i64 0), i32* %2)
  %9 = load i32, i32* %2, align 4
  %10 = srem i32 %9, 10
  store i32 %10, i32* %3, align 4
  %11 = load i32, i32* %2, align 4
  %12 = sdiv i32 %11, 10
  %13 = srem i32 %12, 10
  store i32 %13, i32* %4, align 4
  %14 = load i32, i32* %2, align 4
  %15 = sdiv i32 %14, 100
  %16 = srem i32 %15, 10
  store i32 %16, i32* %5, align 4
  %17 = load i32, i32* %2, align 4
  %18 = sdiv i32 %17, 1000
  %19 = srem i32 %18, 10
  store i32 %19, i32* %6, align 4
  %20 = load i32, i32* %2, align 4
  %21 = sdiv i32 %20, 10000
  store i32 %21, i32* %7, align 4
  %22 = load i32, i32* %4, align 4
  %23 = icmp eq i32 %22, 0
  br i1 %23, label %24, label %27

24:                                               ; preds = %0
  %25 = load i32, i32* %3, align 4
  %26 = call i32 (i8*, ...) @printf(i8* getelementptr inbounds ([3 x i8], [3 x i8]* @.str, i64 0, i64 0), i32 %25)
  br label %61

27:                                               ; preds = %0
  %28 = load i32, i32* %5, align 4
  %29 = icmp eq i32 %28, 0
  br i1 %29, label %30, label %34

30:                                               ; preds = %27
  %31 = load i32, i32* %3, align 4
  %32 = load i32, i32* %4, align 4
  %33 = call i32 (i8*, ...) @printf(i8* getelementptr inbounds ([5 x i8], [5 x i8]* @.str.1, i64 0, i64 0), i32 %31, i32 %32)
  br label %60

34:                                               ; preds = %27
  %35 = load i32, i32* %6, align 4
  %36 = icmp eq i32 %35, 0
  br i1 %36, label %37, label %42

37:                                               ; preds = %34
  %38 = load i32, i32* %3, align 4
  %39 = load i32, i32* %4, align 4
  %40 = load i32, i32* %5, align 4
  %41 = call i32 (i8*, ...) @printf(i8* getelementptr inbounds ([7 x i8], [7 x i8]* @.str.2, i64 0, i64 0), i32 %38, i32 %39, i32 %40)
  br label %59

42:                                               ; preds = %34
  %43 = load i32, i32* %7, align 4
  %44 = icmp eq i32 %43, 0
  br i1 %44, label %45, label %51

45:                                               ; preds = %42
  %46 = load i32, i32* %3, align 4
  %47 = load i32, i32* %4, align 4
  %48 = load i32, i32* %5, align 4
  %49 = load i32, i32* %6, align 4
  %50 = call i32 (i8*, ...) @printf(i8* getelementptr inbounds ([9 x i8], [9 x i8]* @.str.3, i64 0, i64 0), i32 %46, i32 %47, i32 %48, i32 %49)
  br label %58

51:                                               ; preds = %42
  %52 = load i32, i32* %3, align 4
  %53 = load i32, i32* %4, align 4
  %54 = load i32, i32* %5, align 4
  %55 = load i32, i32* %6, align 4
  %56 = load i32, i32* %7, align 4
  %57 = call i32 (i8*, ...) @printf(i8* getelementptr inbounds ([11 x i8], [11 x i8]* @.str.4, i64 0, i64 0), i32 %52, i32 %53, i32 %54, i32 %55, i32 %56)
  br label %58

58:                                               ; preds = %51, %45
  br label %59

59:                                               ; preds = %58, %37
  br label %60

60:                                               ; preds = %59, %30
  br label %61

61:                                               ; preds = %60, %24
  ret i32 0
}

declare dso_local i32 @__isoc99_scanf(i8*, ...) #1

declare dso_local i32 @printf(i8*, ...) #1


!llvm.module.flags = !{!0}
!llvm.ident = !{!1}

!0 = !{i32 1, !"wchar_size", i32 4}
!1 = !{!"clang version 10.0.0-4ubuntu1 "}
